; Function Attrs: nounwind uwtable
define ptr @l_Array_forIn_x27Unsafe_loop___at_Lean_Meta_MatcherApp_transform___spec__1___rarg___lambda__1(ptr noundef %0, i64 noundef %1, ptr noundef %2, i8 noundef zeroext %3, ptr noundef %4, ptr noundef %5, ptr noundef %6, ptr noundef %7, i64 noundef %8, ptr noundef %9) local_unnamed_addr #1 {
  %11 = ptrtoint ptr %9 to i64
  %12 = and i64 %11, 1
  %.not.i61 = icmp eq i64 %12, 0
  br i1 %.not.i61, label %16, label %13

13:                                               ; preds = %10
  %14 = lshr i64 %11, 1
  %15 = trunc i64 %14 to i32
  br label %lean_obj_tag.exit

16:                                               ; preds = %10
  %17 = getelementptr i8, ptr %9, i64 4
  %.val.i = load i32, ptr %17, align 4
  %18 = lshr i32 %.val.i, 24
  br label %lean_obj_tag.exit

lean_obj_tag.exit:                                ; preds = %13, %16
  %.0.i = phi i32 [ %15, %13 ], [ %18, %16 ]
  %19 = icmp eq i32 %.0.i, 0
  br i1 %19, label %20, label %120

20:                                               ; preds = %lean_obj_tag.exit
  %21 = ptrtoint ptr %7 to i64
  %22 = and i64 %21, 1
  %.not74 = icmp eq i64 %22, 0
  br i1 %.not74, label %23, label %lean_dec.exit44

23:                                               ; preds = %20
  %24 = load i32, ptr %7, align 4, !tbaa !8
  %25 = icmp sgt i32 %24, 1
  br i1 %25, label %26, label %28, !prof !11

26:                                               ; preds = %23
  %27 = add nsw i32 %24, -1
  store i32 %27, ptr %7, align 4, !tbaa !8
  br label %lean_dec.exit44

28:                                               ; preds = %23
  %.not.i = icmp eq i32 %24, 0
  br i1 %.not.i, label %lean_dec.exit44, label %29

29:                                               ; preds = %28
  tail call void @lean_dec_ref_cold(ptr noundef nonnull %7) #4
  br label %lean_dec.exit44

lean_dec.exit44:                                  ; preds = %29, %28, %26, %20
  %30 = ptrtoint ptr %6 to i64
  %31 = and i64 %30, 1
  %.not75 = icmp eq i64 %31, 0
  br i1 %.not75, label %32, label %lean_dec.exit43

32:                                               ; preds = %lean_dec.exit44
  %33 = load i32, ptr %6, align 4, !tbaa !8
  %34 = icmp sgt i32 %33, 1
  br i1 %34, label %35, label %37, !prof !11

35:                                               ; preds = %32
  %36 = add nsw i32 %33, -1
  store i32 %36, ptr %6, align 4, !tbaa !8
  br label %lean_dec.exit43

37:                                               ; preds = %32
  %.not.i45 = icmp eq i32 %33, 0
  br i1 %.not.i45, label %lean_dec.exit43, label %38

38:                                               ; preds = %37
  tail call void @lean_dec_ref_cold(ptr noundef nonnull %6) #4
  br label %lean_dec.exit43

lean_dec.exit43:                                  ; preds = %38, %37, %35, %lean_dec.exit44
  %39 = ptrtoint ptr %5 to i64
  %40 = and i64 %39, 1
  %.not76 = icmp eq i64 %40, 0
  br i1 %.not76, label %41, label %lean_dec.exit42

41:                                               ; preds = %lean_dec.exit43
  %42 = load i32, ptr %5, align 4, !tbaa !8
  %43 = icmp sgt i32 %42, 1
  br i1 %43, label %44, label %46, !prof !11

44:                                               ; preds = %41
  %45 = add nsw i32 %42, -1
  store i32 %45, ptr %5, align 4, !tbaa !8
  br label %lean_dec.exit42

46:                                               ; preds = %41
  %.not.i47 = icmp eq i32 %42, 0
  br i1 %.not.i47, label %lean_dec.exit42, label %47

47:                                               ; preds = %46
  tail call void @lean_dec_ref_cold(ptr noundef nonnull %5) #4
  br label %lean_dec.exit42

lean_dec.exit42:                                  ; preds = %47, %46, %44, %lean_dec.exit43
  %48 = ptrtoint ptr %4 to i64
  %49 = and i64 %48, 1
  %.not77 = icmp eq i64 %49, 0
  br i1 %.not77, label %50, label %lean_dec.exit41

50:                                               ; preds = %lean_dec.exit42
  %51 = load i32, ptr %4, align 4, !tbaa !8
  %52 = icmp sgt i32 %51, 1
  br i1 %52, label %53, label %55, !prof !11

53:                                               ; preds = %50
  %54 = add nsw i32 %51, -1
  store i32 %54, ptr %4, align 4, !tbaa !8
  br label %lean_dec.exit41

55:                                               ; preds = %50
  %.not.i49 = icmp eq i32 %51, 0
  br i1 %.not.i49, label %lean_dec.exit41, label %56

56:                                               ; preds = %55
  tail call void @lean_dec_ref_cold(ptr noundef nonnull %4) #4
  br label %lean_dec.exit41

lean_dec.exit41:                                  ; preds = %56, %55, %53, %lean_dec.exit42
  %57 = ptrtoint ptr %2 to i64
  %58 = and i64 %57, 1
  %.not78 = icmp eq i64 %58, 0
  br i1 %.not78, label %59, label %lean_dec.exit40

59:                                               ; preds = %lean_dec.exit41
  %60 = load i32, ptr %2, align 4, !tbaa !8
  %61 = icmp sgt i32 %60, 1
  br i1 %61, label %62, label %64, !prof !11

62:                                               ; preds = %59
  %63 = add nsw i32 %60, -1
  store i32 %63, ptr %2, align 4, !tbaa !8
  br label %lean_dec.exit40

64:                                               ; preds = %59
  %.not.i51 = icmp eq i32 %60, 0
  br i1 %.not.i51, label %lean_dec.exit40, label %65

65:                                               ; preds = %64
  tail call void @lean_dec_ref_cold(ptr noundef nonnull %2) #4
  br label %lean_dec.exit40

lean_dec.exit40:                                  ; preds = %65, %64, %62, %lean_dec.exit41
  %66 = getelementptr inbounds nuw i8, ptr %9, i64 8
  %67 = load ptr, ptr %66, align 8, !tbaa !4
  %68 = ptrtoint ptr %67 to i64
  %69 = and i64 %68, 1
  %.not79 = icmp eq i64 %69, 0
  br i1 %.not79, label %70, label %lean_inc.exit36

70:                                               ; preds = %lean_dec.exit40
  %.val.i62 = load i32, ptr %67, align 4, !tbaa !8
  %71 = icmp sgt i32 %.val.i62, 0
  br i1 %71, label %72, label %74, !prof !11

72:                                               ; preds = %70
  %73 = add nuw i32 %.val.i62, 1
  store i32 %73, ptr %67, align 4, !tbaa !8
  br label %lean_inc.exit36

74:                                               ; preds = %70
  %.not.i63 = icmp eq i32 %.val.i62, 0
  br i1 %.not.i63, label %lean_inc.exit36, label %75

75:                                               ; preds = %74
  tail call void @lean_inc_ref_cold(ptr noundef nonnull %67) #4
  br label %lean_inc.exit36

lean_inc.exit36:                                  ; preds = %75, %74, %72, %lean_dec.exit40
  br i1 %.not.i61, label %76, label %lean_dec.exit39

76:                                               ; preds = %lean_inc.exit36
  %77 = load i32, ptr %9, align 4, !tbaa !8
  %78 = icmp sgt i32 %77, 1
  br i1 %78, label %79, label %81, !prof !11

79:                                               ; preds = %76
  %80 = add nsw i32 %77, -1
  store i32 %80, ptr %9, align 4, !tbaa !8
  br label %lean_dec.exit39

81:                                               ; preds = %76
  %.not.i53 = icmp eq i32 %77, 0
  br i1 %.not.i53, label %lean_dec.exit39, label %82

82:                                               ; preds = %81
  tail call void @lean_dec_ref_cold(ptr noundef nonnull %9) #4
  br label %lean_dec.exit39

lean_dec.exit39:                                  ; preds = %82, %81, %79, %lean_inc.exit36
  %83 = getelementptr inbounds nuw i8, ptr %0, i64 8
  %84 = load ptr, ptr %83, align 8, !tbaa !4
  %85 = ptrtoint ptr %84 to i64
  %86 = and i64 %85, 1
  %.not81 = icmp eq i64 %86, 0
  br i1 %.not81, label %87, label %lean_inc.exit35

87:                                               ; preds = %lean_dec.exit39
  %.val.i64 = load i32, ptr %84, align 4, !tbaa !8
  %88 = icmp sgt i32 %.val.i64, 0
  br i1 %88, label %89, label %91, !prof !11

89:                                               ; preds = %87
  %90 = add nuw i32 %.val.i64, 1
  store i32 %90, ptr %84, align 4, !tbaa !8
  br label %lean_inc.exit35

91:                                               ; preds = %87
  %.not.i65 = icmp eq i32 %.val.i64, 0
  br i1 %.not.i65, label %lean_inc.exit35, label %92

92:                                               ; preds = %91
  tail call void @lean_inc_ref_cold(ptr noundef nonnull %84) #4
  br label %lean_inc.exit35

lean_inc.exit35:                                  ; preds = %92, %91, %89, %lean_dec.exit39
  %93 = ptrtoint ptr %0 to i64
  %94 = and i64 %93, 1
  %.not82 = icmp eq i64 %94, 0
  br i1 %.not82, label %95, label %lean_dec.exit38

95:                                               ; preds = %lean_inc.exit35
  %96 = load i32, ptr %0, align 4, !tbaa !8
  %97 = icmp sgt i32 %96, 1
  br i1 %97, label %98, label %100, !prof !11

98:                                               ; preds = %95
  %99 = add nsw i32 %96, -1
  store i32 %99, ptr %0, align 4, !tbaa !8
  br label %lean_dec.exit38

100:                                              ; preds = %95
  %.not.i55 = icmp eq i32 %96, 0
  br i1 %.not.i55, label %lean_dec.exit38, label %101

101:                                              ; preds = %100
  tail call void @lean_dec_ref_cold(ptr noundef nonnull %0) #4
  br label %lean_dec.exit38

lean_dec.exit38:                                  ; preds = %101, %100, %98, %lean_inc.exit35
  %102 = getelementptr inbounds nuw i8, ptr %84, i64 16
  %103 = load ptr, ptr %102, align 8, !tbaa !4
  %104 = ptrtoint ptr %103 to i64
  %105 = and i64 %104, 1
  %.not83 = icmp eq i64 %105, 0
  br i1 %.not83, label %106, label %lean_inc.exit34

106:                                              ; preds = %lean_dec.exit38
  %.val.i67 = load i32, ptr %103, align 4, !tbaa !8
  %107 = icmp sgt i32 %.val.i67, 0
  br i1 %107, label %108, label %110, !prof !11

108:                                              ; preds = %106
  %109 = add nuw i32 %.val.i67, 1
  store i32 %109, ptr %103, align 4, !tbaa !8
  br label %lean_inc.exit34

110:                                              ; preds = %106
  %.not.i68 = icmp eq i32 %.val.i67, 0
  br i1 %.not.i68, label %lean_inc.exit34, label %111

111:                                              ; preds = %110
  tail call void @lean_inc_ref_cold(ptr noundef nonnull %103) #4
  br label %lean_inc.exit34

lean_inc.exit34:                                  ; preds = %111, %110, %108, %lean_dec.exit38
  br i1 %.not81, label %112, label %lean_dec.exit37

112:                                              ; preds = %lean_inc.exit34
  %113 = load i32, ptr %84, align 4, !tbaa !8
  %114 = icmp sgt i32 %113, 1
  br i1 %114, label %115, label %117, !prof !11

115:                                              ; preds = %112
  %116 = add nsw i32 %113, -1
  store i32 %116, ptr %84, align 4, !tbaa !8
  br label %lean_dec.exit37

117:                                              ; preds = %112
  %.not.i57 = icmp eq i32 %113, 0
  br i1 %.not.i57, label %lean_dec.exit37, label %118

118:                                              ; preds = %117
  tail call void @lean_dec_ref_cold(ptr noundef nonnull %84) #4
  br label %lean_dec.exit37

lean_dec.exit37:                                  ; preds = %118, %117, %115, %lean_inc.exit34
  %119 = tail call ptr @lean_apply_2(ptr noundef %103, ptr noundef nonnull inttoptr (i64 1 to ptr), ptr noundef %67) #4
  br label %140

120:                                              ; preds = %lean_obj_tag.exit
  %121 = getelementptr inbounds nuw i8, ptr %9, i64 8
  %122 = load ptr, ptr %121, align 8, !tbaa !4
  %123 = ptrtoint ptr %122 to i64
  %124 = and i64 %123, 1
  %.not = icmp eq i64 %124, 0
  br i1 %.not, label %125, label %lean_inc.exit

125:                                              ; preds = %120
  %.val.i70 = load i32, ptr %122, align 4, !tbaa !8
  %126 = icmp sgt i32 %.val.i70, 0
  br i1 %126, label %127, label %129, !prof !11

127:                                              ; preds = %125
  %128 = add nuw i32 %.val.i70, 1
  store i32 %128, ptr %122, align 4, !tbaa !8
  br label %lean_inc.exit

129:                                              ; preds = %125
  %.not.i71 = icmp eq i32 %.val.i70, 0
  br i1 %.not.i71, label %lean_inc.exit, label %130

130:                                              ; preds = %129
  tail call void @lean_inc_ref_cold(ptr noundef nonnull %122) #4
  br label %lean_inc.exit

lean_inc.exit:                                    ; preds = %130, %129, %127, %120
  br i1 %.not.i61, label %131, label %lean_dec.exit

131:                                              ; preds = %lean_inc.exit
  %132 = load i32, ptr %9, align 4, !tbaa !8
  %133 = icmp sgt i32 %132, 1
  br i1 %133, label %134, label %136, !prof !11

134:                                              ; preds = %131
  %135 = add nsw i32 %132, -1
  store i32 %135, ptr %9, align 4, !tbaa !8
  br label %lean_dec.exit

136:                                              ; preds = %131
  %.not.i59 = icmp eq i32 %132, 0
  br i1 %.not.i59, label %lean_dec.exit, label %137

137:                                              ; preds = %136
  tail call void @lean_dec_ref_cold(ptr noundef nonnull %9) #4
  br label %lean_dec.exit

lean_dec.exit:                                    ; preds = %137, %136, %134, %lean_inc.exit
  %138 = add i64 %1, 1
  %139 = tail call ptr @l_Array_forIn_x27Unsafe_loop___at_Lean_Meta_MatcherApp_transform___spec__1___rarg(ptr noundef %2, ptr noundef %0, i8 noundef zeroext %3, ptr noundef %4, ptr noundef %5, ptr noundef %6, ptr noundef %7, i64 noundef %8, i64 noundef %138, ptr noundef %122)
  br label %140

140:                                              ; preds = %lean_dec.exit, %lean_dec.exit37
  %.0 = phi ptr [ %119, %lean_dec.exit37 ], [ %139, %lean_dec.exit ]
  ret ptr %.0
}